; Function Attrs: mustprogress uwtable
define hidden void @_ZN4cvc58internal6theory6Theory15entailmentCheckENS0_12NodeTemplateILb0EEE(ptr noalias nocapture writeonly sret(%"struct.std::pair.592") align 8 %agg.result, ptr nocapture nonnull readnone align 8 %this, ptr nocapture readnone %lit) unnamed_addr #3 align 2 personality ptr @__gxx_personality_v0 {
entry:
  %ref.tmp2 = alloca %"class.cvc5::internal::NodeTemplate.355", align 8
  tail call void @llvm.experimental.noalias.scope.decl(metadata !70)
  %0 = load ptr, ptr @_ZN4cvc58internal12NodeTemplateILb1EE6s_nullE, align 8, !noalias !70
  store ptr %0, ptr %ref.tmp2, align 8, !alias.scope !70
  %bf.load.i.i.i = load i64, ptr %0, align 8
  %bf.lshr.i.i.i = lshr i64 %bf.load.i.i.i, 40
  %1 = trunc i64 %bf.lshr.i.i.i to i32
  %bf.cast.i.i.i = and i32 %1, 1048575
  %cmp.i.i.i = icmp ult i32 %bf.cast.i.i.i, 1048574
  br i1 %cmp.i.i.i, label %if.then.i.i.i, label %if.else.i.i.i

if.then.i.i.i:                                    ; preds = %entry
  %bf.value.i.i.i = add i64 %bf.load.i.i.i, 1099511627776
  %bf.shl.i.i.i = and i64 %bf.value.i.i.i, 1152920405095219200
  %bf.clear7.i.i.i = and i64 %bf.load.i.i.i, -1152920405095219201
  %bf.set.i.i.i = or disjoint i64 %bf.shl.i.i.i, %bf.clear7.i.i.i
  store i64 %bf.set.i.i.i, ptr %0, align 8, !noalias !70
  br label %_ZN4cvc58internal12NodeTemplateILb1EE4nullEv.exit

if.else.i.i.i:                                    ; preds = %entry
  %cmp12.i.i.i = icmp eq i32 %bf.cast.i.i.i, 1048574
  br i1 %cmp12.i.i.i, label %if.then13.i.i.i, label %_ZN4cvc58internal12NodeTemplateILb1EE4nullEv.exit

if.then13.i.i.i:                                  ; preds = %if.else.i.i.i
  %bf.set23.i.i.i = or i64 %bf.load.i.i.i, 1152920405095219200
  store i64 %bf.set23.i.i.i, ptr %0, align 8, !noalias !70
  tail call void @_ZN4cvc58internal4expr9NodeValue20markRefCountMaxedOutEv(ptr noundef nonnull align 8 dereferenceable(16) %0), !noalias !70
  %bf.load.i.i.i.i.pre = load i64, ptr %0, align 8
  br label %_ZN4cvc58internal12NodeTemplateILb1EE4nullEv.exit

_ZN4cvc58internal12NodeTemplateILb1EE4nullEv.exit: ; preds = %if.then.i.i.i, %if.else.i.i.i, %if.then13.i.i.i
  %bf.load.i.i.i.i = phi i64 [ %bf.set.i.i.i, %if.then.i.i.i ], [ %bf.load.i.i.i, %if.else.i.i.i ], [ %bf.load.i.i.i.i.pre, %if.then13.i.i.i ]
  tail call void @llvm.experimental.noalias.scope.decl(metadata !73)
  store i8 0, ptr %agg.result, align 8, !alias.scope !73
  %second.i.i = getelementptr inbounds i8, ptr %agg.result, i64 8
  store ptr %0, ptr %second.i.i, align 8, !alias.scope !73
  %bf.lshr.i.i.i.i = lshr i64 %bf.load.i.i.i.i, 40
  %2 = trunc i64 %bf.lshr.i.i.i.i to i32
  %bf.cast.i.i.i.i = and i32 %2, 1048575
  %cmp.i.i.i.i = icmp ult i32 %bf.cast.i.i.i.i, 1048574
  br i1 %cmp.i.i.i.i, label %if.then.i.i.i.i, label %if.else.i.i.i.i

if.then.i.i.i.i:                                  ; preds = %_ZN4cvc58internal12NodeTemplateILb1EE4nullEv.exit
  %bf.value.i.i.i.i = add i64 %bf.load.i.i.i.i, 1099511627776
  %bf.shl.i.i.i.i = and i64 %bf.value.i.i.i.i, 1152920405095219200
  %bf.clear7.i.i.i.i = and i64 %bf.load.i.i.i.i, -1152920405095219201
  %bf.set.i.i.i.i = or disjoint i64 %bf.shl.i.i.i.i, %bf.clear7.i.i.i.i
  store i64 %bf.set.i.i.i.i, ptr %0, align 8, !noalias !73
  br label %invoke.cont

if.else.i.i.i.i:                                  ; preds = %_ZN4cvc58internal12NodeTemplateILb1EE4nullEv.exit
  %cmp12.i.i.i.i = icmp eq i32 %bf.cast.i.i.i.i, 1048574
  br i1 %cmp12.i.i.i.i, label %if.then13.i.i.i.i, label %invoke.cont

if.then13.i.i.i.i:                                ; preds = %if.else.i.i.i.i
  %bf.set23.i.i.i.i = or i64 %bf.load.i.i.i.i, 1152920405095219200
  store i64 %bf.set23.i.i.i.i, ptr %0, align 8, !noalias !73
  invoke void @_ZN4cvc58internal4expr9NodeValue20markRefCountMaxedOutEv(ptr noundef nonnull align 8 dereferenceable(16) %0)
          to label %if.then13.i.i.i.i.invoke.cont_crit_edge unwind label %lpad

if.then13.i.i.i.i.invoke.cont_crit_edge:          ; preds = %if.then13.i.i.i.i
  %bf.load.i.i.pre = load i64, ptr %0, align 8
  br label %invoke.cont

invoke.cont:                                      ; preds = %if.then13.i.i.i.i.invoke.cont_crit_edge, %if.else.i.i.i.i, %if.then.i.i.i.i
  %bf.load.i.i = phi i64 [ %bf.load.i.i.pre, %if.then13.i.i.i.i.invoke.cont_crit_edge ], [ %bf.load.i.i.i.i, %if.else.i.i.i.i ], [ %bf.set.i.i.i.i, %if.then.i.i.i.i ]
  %3 = and i64 %bf.load.i.i, 1152920405095219200
  %cmp.not.i.i = icmp eq i64 %3, 1152920405095219200
  br i1 %cmp.not.i.i, label %_ZN4cvc58internal12NodeTemplateILb1EED2Ev.exit, label %if.then.i.i

if.then.i.i:                                      ; preds = %invoke.cont
  %bf.value.i.i = add i64 %bf.load.i.i, 1152920405095219200
  %bf.shl.i.i = and i64 %bf.value.i.i, 1152920405095219200
  %bf.clear7.i.i = and i64 %bf.load.i.i, -1152920405095219201
  %bf.set.i.i = or disjoint i64 %bf.shl.i.i, %bf.clear7.i.i
  store i64 %bf.set.i.i, ptr %0, align 8
  %cmp12.i.i = icmp eq i64 %bf.shl.i.i, 0
  br i1 %cmp12.i.i, label %if.then13.i.i, label %_ZN4cvc58internal12NodeTemplateILb1EED2Ev.exit

if.then13.i.i:                                    ; preds = %if.then.i.i
  invoke void @_ZN4cvc58internal4expr9NodeValue15markForDeletionEv(ptr noundef nonnull align 8 dereferenceable(16) %0)
          to label %_ZN4cvc58internal12NodeTemplateILb1EED2Ev.exit unwind label %terminate.lpad.i

terminate.lpad.i:                                 ; preds = %if.then13.i.i
  %4 = landingpad { ptr, i32 }
          catch ptr null
  %5 = extractvalue { ptr, i32 } %4, 0
  tail call void @__clang_call_terminate(ptr %5) #22
  unreachable

_ZN4cvc58internal12NodeTemplateILb1EED2Ev.exit:   ; preds = %invoke.cont, %if.then.i.i, %if.then13.i.i
  ret void

lpad:                                             ; preds = %if.then13.i.i.i.i
  %6 = landingpad { ptr, i32 }
          cleanup
  call void @_ZN4cvc58internal12NodeTemplateILb1EED2Ev(ptr noundef nonnull align 8 dereferenceable(8) %ref.tmp2) #23
  resume { ptr, i32 } %6
}